; Function Attrs: mustprogress uwtable
define void @_ZN6Assimp8Importer12SetIOHandlerEPNS_8IOSystemE(ptr nocapture noundef nonnull readonly align 8 dereferenceable(8) %this, ptr noundef %pIOHandler) local_unnamed_addr #2 align 2 personality ptr @__gxx_personality_v0 {
entry:
  %tobool.not = icmp eq ptr %pIOHandler, null
  br i1 %tobool.not, label %if.then, label %if.else

if.then:                                          ; preds = %entry
  %call.i3 = invoke noalias noundef nonnull dereferenceable(32) ptr @_Znwm(i64 noundef 32) #24
          to label %invoke.cont unwind label %lpad

invoke.cont:                                      ; preds = %if.then
  %0 = getelementptr inbounds i8, ptr %call.i3, i64 8
  tail call void @llvm.memset.p0.i64(ptr noundef nonnull align 8 dereferenceable(24) %0, i8 0, i64 24, i1 false)
  store ptr getelementptr inbounds ({ [16 x ptr] }, ptr @_ZTVN6Assimp15DefaultIOSystemE, i64 0, i32 0, i64 2), ptr %call.i3, align 8
  %1 = load ptr, ptr %this, align 8
  store ptr %call.i3, ptr %1, align 8
  %2 = load ptr, ptr %this, align 8
  %mIsDefaultHandler = getelementptr inbounds i8, ptr %2, i64 8
  store i8 1, ptr %mIsDefaultHandler, align 8
  br label %try.cont

lpad:                                             ; preds = %if.then
  %3 = landingpad { ptr, i32 }
          catch ptr null
  %4 = extractvalue { ptr, i32 } %3, 0
  %5 = tail call ptr @__cxa_begin_catch(ptr %4) #25
  tail call void @__cxa_end_catch()
  br label %try.cont

if.else:                                          ; preds = %entry
  %6 = load ptr, ptr %this, align 8
  %7 = load ptr, ptr %6, align 8
  %cmp.not = icmp eq ptr %7, %pIOHandler
  br i1 %cmp.not, label %try.cont, label %if.then5

if.then5:                                         ; preds = %if.else
  %isnull = icmp eq ptr %7, null
  br i1 %isnull, label %delete.end, label %delete.notnull

delete.notnull:                                   ; preds = %if.then5
  %vtable = load ptr, ptr %7, align 8
  %vfn = getelementptr inbounds i8, ptr %vtable, i64 8
  %8 = load ptr, ptr %vfn, align 8
  tail call void %8(ptr noundef nonnull align 8 dereferenceable(32) %7) #25
  %.pre = load ptr, ptr %this, align 8
  br label %delete.end

delete.end:                                       ; preds = %delete.notnull, %if.then5
  %9 = phi ptr [ %.pre, %delete.notnull ], [ %6, %if.then5 ]
  store ptr %pIOHandler, ptr %9, align 8
  %10 = load ptr, ptr %this, align 8
  %mIsDefaultHandler11 = getelementptr inbounds i8, ptr %10, i64 8
  store i8 0, ptr %mIsDefaultHandler11, align 8
  br label %try.cont

try.cont:                                         ; preds = %invoke.cont, %delete.end, %if.else, %lpad
  ret void
}